target datalayout = "e-m:e-p270:32:32-p271:32:32-p272:64:64-i64:64-i128:128-f80:128-n8:16:32:64-S128"
target triple = "x86_64-pc-linux-gnu"

%struct.rb_data_type_struct = type { ptr, %struct.anon, ptr, ptr, i64 }
%struct.anon = type { ptr, ptr, ptr, ptr, [1 x ptr] }

@stat_data_type = internal constant %struct.rb_data_type_struct { ptr @.str.37, %struct.anon { ptr null, ptr inttoptr (i64 -1 to ptr), ptr null, ptr null, [1 x ptr] zeroinitializer }, ptr null, ptr null, i64 35 }, align 8

; Function Attrs: nounwind sspstrong uwtable
define internal i64 @rb_stat_init_copy(i64 noundef %0, i64 noundef %1) #0 {
  %3 = alloca i64, align 8
  %4 = alloca i64, align 8
  %5 = alloca i64, align 8
  %6 = alloca ptr, align 8
  %7 = alloca ptr, align 8
  store i64 %0, ptr %4, align 8, !tbaa !7
  store i64 %1, ptr %5, align 8, !tbaa !7
  %8 = load i64, ptr %4, align 8, !tbaa !7
  %9 = load i64, ptr %5, align 8, !tbaa !7
  %10 = icmp ne i64 %8, %9
  br i1 %10, label %11, label %15

11:                                               ; preds = %2
  %12 = load i64, ptr %4, align 8, !tbaa !7
  %13 = load i64, ptr %5, align 8, !tbaa !7
  %14 = call i64 @rb_obj_init_copy(i64 noundef %12, i64 noundef %13)
  br i1 true, label %17, label %15

15:                                               ; preds = %11, %2
  %16 = load i64, ptr %4, align 8, !tbaa !7
  store i64 %16, ptr %3, align 8
  br label %25

17:                                               ; preds = %11
  call void @llvm.lifetime.start.p0(i64 8, ptr %6) #24
  %18 = load i64, ptr %5, align 8, !tbaa !7
  %19 = call ptr @rb_check_typeddata(i64 noundef %18, ptr noundef @stat_data_type)
  store ptr %19, ptr %6, align 8, !tbaa !24
  call void @llvm.lifetime.start.p0(i64 8, ptr %7) #24
  %20 = load i64, ptr %4, align 8, !tbaa !7
  %21 = call ptr @rb_check_typeddata(i64 noundef %20, ptr noundef @stat_data_type)
  store ptr %21, ptr %7, align 8, !tbaa !24
  %22 = load ptr, ptr %7, align 8, !tbaa !24
  %23 = load ptr, ptr %6, align 8, !tbaa !24
  call void @llvm.memcpy.p0.p0.i64(ptr align 8 %22, ptr align 8 %23, i64 152, i1 false), !tbaa.struct !158
  %24 = load i64, ptr %4, align 8, !tbaa !7
  store i64 %24, ptr %3, align 8
  call void @llvm.lifetime.end.p0(i64 8, ptr %7) #24
  call void @llvm.lifetime.end.p0(i64 8, ptr %6) #24
  br label %25

25:                                               ; preds = %17, %15
  %26 = load i64, ptr %3, align 8
  ret i64 %26
}