; Function Attrs: nounwind sspstrong uwtable
define internal noundef i64 @rb_stat_init_copy(i64 noundef returned %0, i64 noundef %1) #0 {
  %.not = icmp eq i64 %0, %1
  br i1 %.not, label %7, label %3

3:                                                ; preds = %2
  %4 = tail call i64 @rb_obj_init_copy(i64 noundef %0, i64 noundef %1) #22
  %5 = tail call ptr @rb_check_typeddata(i64 noundef %1, ptr noundef nonnull @stat_data_type) #22
  %6 = tail call ptr @rb_check_typeddata(i64 noundef %0, ptr noundef nonnull @stat_data_type) #22
  tail call void @llvm.memcpy.p0.p0.i64(ptr noundef nonnull align 8 dereferenceable(152) %6, ptr noundef nonnull align 8 dereferenceable(152) %5, i64 152, i1 false), !tbaa.struct !276
  br label %7

7:                                                ; preds = %2, %3
  ret i64 %0
}